target datalayout = "e-m:e-p270:32:32-p271:32:32-p272:64:64-i64:64-i128:128-f80:128-n8:16:32:64-S128"
target triple = "x86_64-pc-linux-gnu"

%struct.Test3D = type { [8 x double] }

; Function Attrs: nounwind uwtable
define void @_testfunc_array_in_struct3D_set_defaults(ptr dead_on_unwind noalias writable sret(%struct.Test3D) align 8 %0) #0 {
  %2 = alloca i32, align 4
  call void @llvm.lifetime.start.p0(i64 4, ptr %2) #12
  store i32 0, ptr %2, align 4, !tbaa !3
  br label %3

3:                                                ; preds = %16, %1
  %4 = load i32, ptr %2, align 4, !tbaa !3
  %5 = zext i32 %4 to i64
  %6 = icmp ult i64 %5, 8
  br i1 %6, label %8, label %7

7:                                                ; preds = %3
  call void @llvm.lifetime.end.p0(i64 4, ptr %2) #12
  br label %19

8:                                                ; preds = %3
  %9 = load i32, ptr %2, align 4, !tbaa !3
  %10 = uitofp i32 %9 to double
  %11 = fadd double %10, 1.000000e+00
  %12 = getelementptr inbounds nuw %struct.Test3D, ptr %0, i32 0, i32 0
  %13 = load i32, ptr %2, align 4, !tbaa !3
  %14 = zext i32 %13 to i64
  %15 = getelementptr [8 x double], ptr %12, i64 0, i64 %14
  store double %11, ptr %15, align 8, !tbaa !9
  br label %16

16:                                               ; preds = %8
  %17 = load i32, ptr %2, align 4, !tbaa !3
  %18 = add i32 %17, 1
  store i32 %18, ptr %2, align 4, !tbaa !3
  br label %3, !llvm.loop !32

19:                                               ; preds = %7
  ret void
}