; Function Attrs: nofree norecurse nosync nounwind memory(argmem: write) uwtable
define void @_testfunc_array_in_struct3D_set_defaults(ptr dead_on_unwind noalias writable writeonly sret(%struct.Test3D) align 8 captures(none) %0) local_unnamed_addr #9 {
  br label %3

2:                                                ; preds = %3
  ret void

3:                                                ; preds = %1, %3
  %indvars.iv = phi i64 [ 0, %1 ], [ %indvars.iv.next, %3 ]
  %indvars.iv.next = add nuw nsw i64 %indvars.iv, 1
  %4 = trunc nuw nsw i64 %indvars.iv.next to i32
  %5 = uitofp nneg i32 %4 to double
  %6 = getelementptr [8 x double], ptr %0, i64 0, i64 %indvars.iv
  store double %5, ptr %6, align 8, !tbaa !23
  %exitcond.not = icmp eq i64 %indvars.iv.next, 8
  br i1 %exitcond.not, label %2, label %3, !llvm.loop !28
}